target datalayout = "e-m:e-p270:32:32-p271:32:32-p272:64:64-i64:64-i128:128-f80:128-n8:16:32:64-S128"
target triple = "x86_64-pc-linux-gnu"

%struct.lemon = type { ptr, ptr, ptr, i32, i32, i32, i32, i32, i32, i32, i32, i32, i32, i32, i32, ptr, i32, ptr, ptr, ptr, ptr, ptr, ptr, ptr, ptr, ptr, ptr, ptr, ptr, ptr, ptr, ptr, ptr, ptr, ptr, ptr, ptr, i32, i32, i32, i32, i32, i32, i32, i32, ptr }
%struct.rule = type { ptr, ptr, i32, i32, i32, ptr, ptr, i32, ptr, ptr, ptr, ptr, i32, i32, i32, i32, i32, i32, i32, ptr, ptr }
%struct.symbol = type { ptr, i32, i32, ptr, ptr, i32, i32, ptr, i32, i32, ptr, i32, ptr, i32, i32, i32, ptr }

; Function Attrs: nounwind null_pointer_is_valid sspstrong uwtable
define hidden void @FindRulePrecedences(ptr noundef %0) #2 {
  %2 = alloca ptr, align 8
  %3 = alloca ptr, align 8
  %4 = alloca i32, align 4
  %5 = alloca i32, align 4
  %6 = alloca ptr, align 8
  store ptr %0, ptr %2, align 8
  call void @llvm.lifetime.start.p0(i64 8, ptr %3) #18
  %7 = load ptr, ptr %2, align 8
  %8 = getelementptr inbounds nuw %struct.lemon, ptr %7, i32 0, i32 1
  %9 = load ptr, ptr %8, align 8
  store ptr %9, ptr %3, align 8
  br label %10

10:                                               ; preds = %99, %1
  %11 = load ptr, ptr %3, align 8
  %12 = icmp ne ptr %11, null
  br i1 %12, label %13, label %103

13:                                               ; preds = %10
  %14 = load ptr, ptr %3, align 8
  %15 = getelementptr inbounds nuw %struct.rule, ptr %14, i32 0, i32 11
  %16 = load ptr, ptr %15, align 8
  %17 = icmp eq ptr %16, null
  br i1 %17, label %18, label %98

18:                                               ; preds = %13
  call void @llvm.lifetime.start.p0(i64 4, ptr %4) #18
  call void @llvm.lifetime.start.p0(i64 4, ptr %5) #18
  store i32 0, ptr %4, align 4
  br label %19

19:                                               ; preds = %94, %18
  %20 = load i32, ptr %4, align 4
  %21 = load ptr, ptr %3, align 8
  %22 = getelementptr inbounds nuw %struct.rule, ptr %21, i32 0, i32 4
  %23 = load i32, ptr %22, align 8
  %24 = icmp slt i32 %20, %23
  br i1 %24, label %25, label %30

25:                                               ; preds = %19
  %26 = load ptr, ptr %3, align 8
  %27 = getelementptr inbounds nuw %struct.rule, ptr %26, i32 0, i32 11
  %28 = load ptr, ptr %27, align 8
  %29 = icmp eq ptr %28, null
  br label %30

30:                                               ; preds = %25, %19
  %31 = phi i1 [ false, %19 ], [ %29, %25 ]
  br i1 %31, label %32, label %97

32:                                               ; preds = %30
  call void @llvm.lifetime.start.p0(i64 8, ptr %6) #18
  %33 = load ptr, ptr %3, align 8
  %34 = getelementptr inbounds nuw %struct.rule, ptr %33, i32 0, i32 5
  %35 = load ptr, ptr %34, align 8
  %36 = load i32, ptr %4, align 4
  %37 = sext i32 %36 to i64
  %38 = getelementptr ptr, ptr %35, i64 %37
  %39 = load ptr, ptr %38, align 8
  store ptr %39, ptr %6, align 8
  %40 = load ptr, ptr %6, align 8
  %41 = getelementptr inbounds nuw %struct.symbol, ptr %40, i32 0, i32 2
  %42 = load i32, ptr %41, align 4
  %43 = icmp eq i32 %42, 2
  br i1 %43, label %44, label %77

44:                                               ; preds = %32
  store i32 0, ptr %5, align 4
  br label %45

45:                                               ; preds = %73, %44
  %46 = load i32, ptr %5, align 4
  %47 = load ptr, ptr %6, align 8
  %48 = getelementptr inbounds nuw %struct.symbol, ptr %47, i32 0, i32 15
  %49 = load i32, ptr %48, align 8
  %50 = icmp slt i32 %46, %49
  br i1 %50, label %51, label %76

51:                                               ; preds = %45
  %52 = load ptr, ptr %6, align 8
  %53 = getelementptr inbounds nuw %struct.symbol, ptr %52, i32 0, i32 16
  %54 = load ptr, ptr %53, align 8
  %55 = load i32, ptr %5, align 4
  %56 = sext i32 %55 to i64
  %57 = getelementptr ptr, ptr %54, i64 %56
  %58 = load ptr, ptr %57, align 8
  %59 = getelementptr inbounds nuw %struct.symbol, ptr %58, i32 0, i32 5
  %60 = load i32, ptr %59, align 8
  %61 = icmp sge i32 %60, 0
  br i1 %61, label %62, label %72

62:                                               ; preds = %51
  %63 = load ptr, ptr %6, align 8
  %64 = getelementptr inbounds nuw %struct.symbol, ptr %63, i32 0, i32 16
  %65 = load ptr, ptr %64, align 8
  %66 = load i32, ptr %5, align 4
  %67 = sext i32 %66 to i64
  %68 = getelementptr ptr, ptr %65, i64 %67
  %69 = load ptr, ptr %68, align 8
  %70 = load ptr, ptr %3, align 8
  %71 = getelementptr inbounds nuw %struct.rule, ptr %70, i32 0, i32 11
  store ptr %69, ptr %71, align 8
  br label %76

72:                                               ; preds = %51
  br label %73

73:                                               ; preds = %72
  %74 = load i32, ptr %5, align 4
  %75 = add i32 %74, 1
  store i32 %75, ptr %5, align 4
  br label %45, !llvm.loop !18

76:                                               ; preds = %62, %45
  br label %93

77:                                               ; preds = %32
  %78 = load ptr, ptr %6, align 8
  %79 = getelementptr inbounds nuw %struct.symbol, ptr %78, i32 0, i32 5
  %80 = load i32, ptr %79, align 8
  %81 = icmp sge i32 %80, 0
  br i1 %81, label %82, label %92

82:                                               ; preds = %77
  %83 = load ptr, ptr %3, align 8
  %84 = getelementptr inbounds nuw %struct.rule, ptr %83, i32 0, i32 5
  %85 = load ptr, ptr %84, align 8
  %86 = load i32, ptr %4, align 4
  %87 = sext i32 %86 to i64
  %88 = getelementptr ptr, ptr %85, i64 %87
  %89 = load ptr, ptr %88, align 8
  %90 = load ptr, ptr %3, align 8
  %91 = getelementptr inbounds nuw %struct.rule, ptr %90, i32 0, i32 11
  store ptr %89, ptr %91, align 8
  br label %92

92:                                               ; preds = %82, %77
  br label %93

93:                                               ; preds = %92, %76
  call void @llvm.lifetime.end.p0(i64 8, ptr %6) #18
  br label %94

94:                                               ; preds = %93
  %95 = load i32, ptr %4, align 4
  %96 = add i32 %95, 1
  store i32 %96, ptr %4, align 4
  br label %19, !llvm.loop !19

97:                                               ; preds = %30
  call void @llvm.lifetime.end.p0(i64 4, ptr %5) #18
  call void @llvm.lifetime.end.p0(i64 4, ptr %4) #18
  br label %98

98:                                               ; preds = %97, %13
  br label %99

99:                                               ; preds = %98
  %100 = load ptr, ptr %3, align 8
  %101 = getelementptr inbounds nuw %struct.rule, ptr %100, i32 0, i32 20
  %102 = load ptr, ptr %101, align 8
  store ptr %102, ptr %3, align 8
  br label %10, !llvm.loop !20

103:                                              ; preds = %10
  call void @llvm.lifetime.end.p0(i64 8, ptr %3) #18
  ret void
}