; Function Attrs: nofree norecurse nosync nounwind null_pointer_is_valid sspstrong memory(readwrite, inaccessiblemem: none) uwtable
define hidden void @FindRulePrecedences(ptr noundef readonly captures(none) %0) local_unnamed_addr #9 {
  %2 = getelementptr inbounds nuw i8, ptr %0, i64 8
  %.029 = load ptr, ptr %2, align 8
  %.not30 = icmp eq ptr %.029, null
  br i1 %.not30, label %._crit_edge, label %.lr.ph33

.lr.ph33:                                         ; preds = %1, %.critedge
  %.031 = phi ptr [ %.0, %.critedge ], [ %.029, %1 ]
  %3 = getelementptr inbounds nuw i8, ptr %.031, i64 80
  %4 = load ptr, ptr %3, align 8
  %5 = icmp eq ptr %4, null
  br i1 %5, label %.preheader24, label %.critedge

.preheader24:                                     ; preds = %.lr.ph33
  %6 = getelementptr inbounds nuw i8, ptr %.031, i64 24
  %7 = load i32, ptr %6, align 8
  %8 = icmp sgt i32 %7, 0
  br i1 %8, label %.lr.ph27, label %.critedge

.lr.ph27:                                         ; preds = %.preheader24
  %9 = getelementptr inbounds nuw i8, ptr %.031, i64 32
  %10 = zext nneg i32 %7 to i64
  br label %11

11:                                               ; preds = %.lr.ph27, %.loopexit
  %indvars.iv36 = phi i64 [ 0, %.lr.ph27 ], [ %indvars.iv.next37, %.loopexit ]
  %12 = phi ptr [ null, %.lr.ph27 ], [ %37, %.loopexit ]
  %13 = icmp eq ptr %12, null
  br i1 %13, label %14, label %.critedge

14:                                               ; preds = %11
  %15 = load ptr, ptr %9, align 8
  %16 = getelementptr ptr, ptr %15, i64 %indvars.iv36
  %17 = load ptr, ptr %16, align 8
  %18 = getelementptr inbounds nuw i8, ptr %17, i64 12
  %19 = load i32, ptr %18, align 4
  %20 = icmp eq i32 %19, 2
  br i1 %20, label %.preheader, label %33

.preheader:                                       ; preds = %14
  %21 = getelementptr inbounds nuw i8, ptr %17, i64 88
  %22 = load i32, ptr %21, align 8
  %23 = icmp sgt i32 %22, 0
  br i1 %23, label %.lr.ph, label %.loopexit

.lr.ph:                                           ; preds = %.preheader
  %24 = getelementptr inbounds nuw i8, ptr %17, i64 96
  %25 = load ptr, ptr %24, align 8
  %wide.trip.count = zext nneg i32 %22 to i64
  br label %27

26:                                               ; preds = %27
  %indvars.iv.next = add nuw nsw i64 %indvars.iv, 1
  %exitcond.not = icmp eq i64 %indvars.iv.next, %wide.trip.count
  br i1 %exitcond.not, label %.loopexit, label %27, !llvm.loop !18

27:                                               ; preds = %.lr.ph, %26
  %indvars.iv = phi i64 [ 0, %.lr.ph ], [ %indvars.iv.next, %26 ]
  %28 = getelementptr ptr, ptr %25, i64 %indvars.iv
  %29 = load ptr, ptr %28, align 8
  %30 = getelementptr inbounds nuw i8, ptr %29, i64 32
  %31 = load i32, ptr %30, align 8
  %32 = icmp sgt i32 %31, -1
  br i1 %32, label %.loopexit.sink.split, label %26

33:                                               ; preds = %14
  %34 = getelementptr inbounds nuw i8, ptr %17, i64 32
  %35 = load i32, ptr %34, align 8
  %36 = icmp sgt i32 %35, -1
  br i1 %36, label %.loopexit.sink.split, label %.loopexit

.loopexit.sink.split:                             ; preds = %27, %33
  %.sink = phi ptr [ %17, %33 ], [ %29, %27 ]
  store ptr %.sink, ptr %3, align 8
  br label %.loopexit

.loopexit:                                        ; preds = %26, %.loopexit.sink.split, %.preheader, %33
  %37 = phi ptr [ null, %33 ], [ null, %.preheader ], [ %.sink, %.loopexit.sink.split ], [ null, %26 ]
  %indvars.iv.next37 = add nuw nsw i64 %indvars.iv36, 1
  %38 = icmp samesign ult i64 %indvars.iv.next37, %10
  br i1 %38, label %11, label %.critedge, !llvm.loop !19

.critedge:                                        ; preds = %.loopexit, %11, %.preheader24, %.lr.ph33
  %39 = getelementptr inbounds nuw i8, ptr %.031, i64 128
  %.0 = load ptr, ptr %39, align 8
  %.not = icmp eq ptr %.0, null
  br i1 %.not, label %._crit_edge, label %.lr.ph33, !llvm.loop !20

._crit_edge:                                      ; preds = %.critedge, %1
  ret void
}